target datalayout = "e-m:e-p270:32:32-p271:32:32-p272:64:64-i64:64-i128:128-f80:128-n8:16:32:64-S128"
target triple = "x86_64-pc-linux-gnu"

%struct.conf_value_st = type { ptr, ptr, ptr }

@.str.4 = private unnamed_addr constant [6 x i8] c"email\00", align 1
@.str.25 = private unnamed_addr constant [126 x i8] c"generated/home/dtcxzyw/WorkSpace/Projects/compilers/llvm-opt-benchmark/bench/libquic/libquic/boringssl/crypto/x509v3/v3_alt.c\00", align 1
@.str.33 = private unnamed_addr constant [5 x i8] c"copy\00", align 1
@.str.34 = private unnamed_addr constant [5 x i8] c"move\00", align 1

; Function Attrs: nounwind uwtable
define hidden ptr @v2i_GENERAL_NAME(ptr noundef %0, ptr noundef %1, ptr noundef %2) #0 {
  %4 = alloca ptr, align 8
  %5 = alloca ptr, align 8
  %6 = alloca ptr, align 8
  store ptr %0, ptr %4, align 8, !tbaa !6
  store ptr %1, ptr %5, align 8, !tbaa !21
  store ptr %2, ptr %6, align 8, !tbaa !23
  %7 = load ptr, ptr %4, align 8, !tbaa !6
  %8 = load ptr, ptr %5, align 8, !tbaa !21
  %9 = load ptr, ptr %6, align 8, !tbaa !23
  %10 = call ptr @v2i_GENERAL_NAME_ex(ptr noundef null, ptr noundef %7, ptr noundef %8, ptr noundef %9, i32 noundef 0)
  ret ptr %10
}

; Function Attrs: nounwind uwtable
define internal ptr @v2i_subject_alt(ptr noundef %0, ptr noundef %1, ptr noundef %2) #0 {
  %4 = alloca ptr, align 8
  %5 = alloca ptr, align 8
  %6 = alloca ptr, align 8
  %7 = alloca ptr, align 8
  %8 = alloca ptr, align 8
  %9 = alloca ptr, align 8
  %10 = alloca i64, align 8
  %11 = alloca i32, align 4
  %12 = alloca ptr, align 8
  store ptr %0, ptr %5, align 8, !tbaa !6
  store ptr %1, ptr %6, align 8, !tbaa !21
  store ptr %2, ptr %7, align 8, !tbaa !13
  call void @llvm.lifetime.start.p0(i64 8, ptr %8) #6
  store ptr null, ptr %8, align 8, !tbaa !11
  call void @llvm.lifetime.start.p0(i64 8, ptr %9) #6
  call void @llvm.lifetime.start.p0(i64 8, ptr %10) #6
  %13 = call ptr @sk_new_null()
  store ptr %13, ptr %8, align 8, !tbaa !11
  %14 = icmp ne ptr %13, null
  br i1 %14, label %16, label %15

15:                                               ; preds = %3
  call void @ERR_put_error(i32 noundef 20, i32 noundef 0, i32 noundef 65, ptr noundef @.str.25, i32 noundef 319)
  store ptr null, ptr %4, align 8
  store i32 1, ptr %11, align 4
  br label %96

16:                                               ; preds = %3
  store i64 0, ptr %10, align 8, !tbaa !15
  br label %17

17:                                               ; preds = %89, %16
  %18 = load i64, ptr %10, align 8, !tbaa !15
  %19 = load ptr, ptr %7, align 8, !tbaa !13
  %20 = call i64 @sk_num(ptr noundef %19)
  %21 = icmp ult i64 %18, %20
  br i1 %21, label %22, label %92

22:                                               ; preds = %17
  %23 = load ptr, ptr %7, align 8, !tbaa !13
  %24 = load i64, ptr %10, align 8, !tbaa !15
  %25 = call ptr @sk_value(ptr noundef %23, i64 noundef %24)
  store ptr %25, ptr %9, align 8, !tbaa !23
  %26 = load ptr, ptr %9, align 8, !tbaa !23
  %27 = getelementptr inbounds nuw %struct.conf_value_st, ptr %26, i32 0, i32 1
  %28 = load ptr, ptr %27, align 8, !tbaa !25
  %29 = call i32 @name_cmp(ptr noundef %28, ptr noundef @.str.4)
  %30 = icmp ne i32 %29, 0
  br i1 %30, label %49, label %31

31:                                               ; preds = %22
  %32 = load ptr, ptr %9, align 8, !tbaa !23
  %33 = getelementptr inbounds nuw %struct.conf_value_st, ptr %32, i32 0, i32 2
  %34 = load ptr, ptr %33, align 8, !tbaa !28
  %35 = icmp ne ptr %34, null
  br i1 %35, label %36, label %49

36:                                               ; preds = %31
  %37 = load ptr, ptr %9, align 8, !tbaa !23
  %38 = getelementptr inbounds nuw %struct.conf_value_st, ptr %37, i32 0, i32 2
  %39 = load ptr, ptr %38, align 8, !tbaa !28
  %40 = call i32 @strcmp(ptr noundef %39, ptr noundef @.str.33) #7
  %41 = icmp ne i32 %40, 0
  br i1 %41, label %49, label %42

42:                                               ; preds = %36
  %43 = load ptr, ptr %6, align 8, !tbaa !21
  %44 = load ptr, ptr %8, align 8, !tbaa !11
  %45 = call i32 @copy_email(ptr noundef %43, ptr noundef %44, i32 noundef 0)
  %46 = icmp ne i32 %45, 0
  br i1 %46, label %48, label %47

47:                                               ; preds = %42
  br label %94

48:                                               ; preds = %42
  br label %88

49:                                               ; preds = %36, %31, %22
  %50 = load ptr, ptr %9, align 8, !tbaa !23
  %51 = getelementptr inbounds nuw %struct.conf_value_st, ptr %50, i32 0, i32 1
  %52 = load ptr, ptr %51, align 8, !tbaa !25
  %53 = call i32 @name_cmp(ptr noundef %52, ptr noundef @.str.4)
  %54 = icmp ne i32 %53, 0
  br i1 %54, label %73, label %55

55:                                               ; preds = %49
  %56 = load ptr, ptr %9, align 8, !tbaa !23
  %57 = getelementptr inbounds nuw %struct.conf_value_st, ptr %56, i32 0, i32 2
  %58 = load ptr, ptr %57, align 8, !tbaa !28
  %59 = icmp ne ptr %58, null
  br i1 %59, label %60, label %73

60:                                               ; preds = %55
  %61 = load ptr, ptr %9, align 8, !tbaa !23
  %62 = getelementptr inbounds nuw %struct.conf_value_st, ptr %61, i32 0, i32 2
  %63 = load ptr, ptr %62, align 8, !tbaa !28
  %64 = call i32 @strcmp(ptr noundef %63, ptr noundef @.str.34) #7
  %65 = icmp ne i32 %64, 0
  br i1 %65, label %73, label %66

66:                                               ; preds = %60
  %67 = load ptr, ptr %6, align 8, !tbaa !21
  %68 = load ptr, ptr %8, align 8, !tbaa !11
  %69 = call i32 @copy_email(ptr noundef %67, ptr noundef %68, i32 noundef 1)
  %70 = icmp ne i32 %69, 0
  br i1 %70, label %72, label %71

71:                                               ; preds = %66
  br label %94

72:                                               ; preds = %66
  br label %87

73:                                               ; preds = %60, %55, %49
  call void @llvm.lifetime.start.p0(i64 8, ptr %12) #6
  %74 = load ptr, ptr %5, align 8, !tbaa !6
  %75 = load ptr, ptr %6, align 8, !tbaa !21
  %76 = load ptr, ptr %9, align 8, !tbaa !23
  %77 = call ptr @v2i_GENERAL_NAME(ptr noundef %74, ptr noundef %75, ptr noundef %76)
  store ptr %77, ptr %12, align 8, !tbaa !17
  %78 = icmp ne ptr %77, null
  br i1 %78, label %80, label %79

79:                                               ; preds = %73
  store i32 5, ptr %11, align 4
  br label %84

80:                                               ; preds = %73
  %81 = load ptr, ptr %8, align 8, !tbaa !11
  %82 = load ptr, ptr %12, align 8, !tbaa !17
  %83 = call i64 @sk_push(ptr noundef %81, ptr noundef %82)
  store i32 0, ptr %11, align 4
  br label %84

84:                                               ; preds = %79, %80
  call void @llvm.lifetime.end.p0(i64 8, ptr %12) #6
  %85 = load i32, ptr %11, align 4
  switch i32 %85, label %96 [
    i32 0, label %86
    i32 5, label %94
  ]

86:                                               ; preds = %84
  br label %87

87:                                               ; preds = %86, %72
  br label %88

88:                                               ; preds = %87, %48
  br label %89

89:                                               ; preds = %88
  %90 = load i64, ptr %10, align 8, !tbaa !15
  %91 = add i64 %90, 1
  store i64 %91, ptr %10, align 8, !tbaa !15
  br label %17, !llvm.loop !29

92:                                               ; preds = %17
  %93 = load ptr, ptr %8, align 8, !tbaa !11
  store ptr %93, ptr %4, align 8
  store i32 1, ptr %11, align 4
  br label %96

94:                                               ; preds = %84, %71, %47
  %95 = load ptr, ptr %8, align 8, !tbaa !11
  call void @sk_pop_free(ptr noundef %95, ptr noundef @GENERAL_NAME_free)
  store ptr null, ptr %4, align 8
  store i32 1, ptr %11, align 4
  br label %96

96:                                               ; preds = %94, %92, %84, %15
  call void @llvm.lifetime.end.p0(i64 8, ptr %10) #6
  call void @llvm.lifetime.end.p0(i64 8, ptr %9) #6
  call void @llvm.lifetime.end.p0(i64 8, ptr %8) #6
  %97 = load ptr, ptr %4, align 8
  ret ptr %97
}