; Function Attrs: nounwind uwtable
define internal ptr @v2i_subject_alt(ptr noundef readnone captures(none) %0, ptr noundef %1, ptr noundef %2) #0 {
  %4 = tail call ptr @sk_new_null() #7
  %.not = icmp eq ptr %4, null
  br i1 %.not, label %6, label %.preheader

.preheader:                                       ; preds = %3
  %5 = tail call i64 @sk_num(ptr noundef %2) #7
  %.not40 = icmp eq i64 %5, 0
  br i1 %.not40, label %.loopexit, label %.lr.ph

6:                                                ; preds = %3
  tail call void @ERR_put_error(i32 noundef 20, i32 noundef 0, i32 noundef 65, ptr noundef nonnull @.str.25, i32 noundef 319) #7
  br label %.loopexit

.lr.ph:                                           ; preds = %.preheader, %31
  %.02439 = phi i64 [ %32, %31 ], [ 0, %.preheader ]
  %7 = tail call ptr @sk_value(ptr noundef %2, i64 noundef %.02439) #7
  %8 = getelementptr inbounds nuw i8, ptr %7, i64 8
  %9 = load ptr, ptr %8, align 8, !tbaa !8
  %10 = tail call i32 @name_cmp(ptr noundef %9, ptr noundef nonnull @.str.4) #7
  %.not29 = icmp eq i32 %10, 0
  br i1 %.not29, label %11, label %18

11:                                               ; preds = %.lr.ph
  %12 = getelementptr inbounds nuw i8, ptr %7, i64 16
  %13 = load ptr, ptr %12, align 8, !tbaa !14
  %.not30 = icmp eq ptr %13, null
  br i1 %.not30, label %18, label %14

14:                                               ; preds = %11
  %15 = tail call i32 @strcmp(ptr noundef nonnull dereferenceable(1) %13, ptr noundef nonnull dereferenceable(5) @.str.33) #8
  %.not31 = icmp eq i32 %15, 0
  br i1 %.not31, label %16, label %18

16:                                               ; preds = %14
  %17 = tail call fastcc i32 @copy_email(ptr noundef %1, ptr noundef %4, i32 noundef 0)
  %.not32 = icmp eq i32 %17, 0
  br i1 %.not32, label %35, label %31

18:                                               ; preds = %14, %11, %.lr.ph
  %19 = load ptr, ptr %8, align 8, !tbaa !8
  %20 = tail call i32 @name_cmp(ptr noundef %19, ptr noundef nonnull @.str.4) #7
  %.not33 = icmp eq i32 %20, 0
  br i1 %.not33, label %21, label %28

21:                                               ; preds = %18
  %22 = getelementptr inbounds nuw i8, ptr %7, i64 16
  %23 = load ptr, ptr %22, align 8, !tbaa !14
  %.not34 = icmp eq ptr %23, null
  br i1 %.not34, label %28, label %24

24:                                               ; preds = %21
  %25 = tail call i32 @strcmp(ptr noundef nonnull dereferenceable(1) %23, ptr noundef nonnull dereferenceable(5) @.str.34) #8
  %.not35 = icmp eq i32 %25, 0
  br i1 %.not35, label %26, label %28

26:                                               ; preds = %24
  %27 = tail call fastcc i32 @copy_email(ptr noundef %1, ptr noundef %4, i32 noundef 1)
  %.not36 = icmp eq i32 %27, 0
  br i1 %.not36, label %35, label %31

28:                                               ; preds = %24, %21, %18
  %29 = tail call ptr @v2i_GENERAL_NAME_ex(ptr noundef null, ptr noundef readnone %0, ptr noundef %1, ptr noundef nonnull readonly %7, i32 noundef 0)
  %.not37 = icmp eq ptr %29, null
  br i1 %.not37, label %35, label %.thread

.thread:                                          ; preds = %28
  %30 = tail call i64 @sk_push(ptr noundef nonnull %4, ptr noundef nonnull %29) #7
  br label %31

31:                                               ; preds = %.thread, %16, %26
  %32 = add nuw i64 %.02439, 1
  %33 = tail call i64 @sk_num(ptr noundef %2) #7
  %34 = icmp ult i64 %32, %33
  br i1 %34, label %.lr.ph, label %.loopexit, !llvm.loop !15

35:                                               ; preds = %28, %26, %16
  tail call void @sk_pop_free(ptr noundef nonnull %4, ptr noundef nonnull @GENERAL_NAME_free) #7
  br label %.loopexit

.loopexit:                                        ; preds = %31, %.preheader, %35, %6
  %.0 = phi ptr [ null, %35 ], [ null, %6 ], [ %4, %.preheader ], [ %4, %31 ]
  ret ptr %.0
}